; ModuleID = '9/1404.c'
source_filename = "9/1404.c"
target datalayout = "e-m:e-p270:32:32-p271:32:32-p272:64:64-i64:64-f80:128-n8:16:32:64-S128"
target triple = "x86_64-pc-linux-gnu"

%struct.patient = type { [10 x i8], i32 }
%struct.old = type { [10 x i8], i32 }
%struct.young = type { [10 x i8], i32 }

@.str = private unnamed_addr constant [3 x i8] c"%d\00", align 1
@.str.1 = private unnamed_addr constant [3 x i8] c"%s\00", align 1
@.str.2 = private unnamed_addr constant [4 x i8] c"%s\0A\00", align 1

; Function Attrs: noinline nounwind uwtable
define dso_local i32 @main() #0 {
  %1 = alloca i32, align 4
  %2 = alloca [100 x %struct.patient], align 16
  %3 = alloca [100 x %struct.old], align 16
  %4 = alloca [100 x %struct.young], align 16
  %5 = alloca i32, align 4
  %6 = alloca i32, align 4
  %7 = alloca i32, align 4
  %8 = alloca i32, align 4
  %9 = alloca i32, align 4
  %10 = alloca i32, align 4
  %11 = alloca [10 x i8], align 1
  %12 = alloca i32, align 4
  %13 = alloca i32, align 4
  %14 = alloca i32, align 4
  %15 = alloca i32, align 4
  %16 = alloca i32, align 4
  store i32 0, i32* %1, align 4
  store i32 0, i32* %6, align 4
  store i32 0, i32* %7, align 4
  store i32 0, i32* %8, align 4
  store i32 0, i32* %9, align 4
  %17 = call i32 (i8*, ...) @__isoc99_scanf(i8* getelementptr inbounds ([3 x i8], [3 x i8]* @.str, i64 0, i64 0), i32* %5)
  store i32 0, i32* %12, align 4
  br label %18

18:                                               ; preds = %94, %0
  %19 = load i32, i32* %12, align 4
  %20 = load i32, i32* %5, align 4
  %21 = icmp slt i32 %19, %20
  br i1 %21, label %22, label %97

22:                                               ; preds = %18
  %23 = load i32, i32* %12, align 4
  %24 = sext i32 %23 to i64
  %25 = getelementptr inbounds [100 x %struct.patient], [100 x %struct.patient]* %2, i64 0, i64 %24
  %26 = getelementptr inbounds %struct.patient, %struct.patient* %25, i32 0, i32 0
  %27 = getelementptr inbounds [10 x i8], [10 x i8]* %26, i64 0, i64 0
  %28 = call i32 (i8*, ...) @__isoc99_scanf(i8* getelementptr inbounds ([3 x i8], [3 x i8]* @.str.1, i64 0, i64 0), i8* %27)
  %29 = load i32, i32* %12, align 4
  %30 = sext i32 %29 to i64
  %31 = getelementptr inbounds [100 x %struct.patient], [100 x %struct.patient]* %2, i64 0, i64 %30
  %32 = getelementptr inbounds %struct.patient, %struct.patient* %31, i32 0, i32 1
  %33 = call i32 (i8*, ...) @__isoc99_scanf(i8* getelementptr inbounds ([3 x i8], [3 x i8]* @.str, i64 0, i64 0), i32* %32)
  %34 = load i32, i32* %12, align 4
  %35 = sext i32 %34 to i64
  %36 = getelementptr inbounds [100 x %struct.patient], [100 x %struct.patient]* %2, i64 0, i64 %35
  %37 = getelementptr inbounds %struct.patient, %struct.patient* %36, i32 0, i32 1
  %38 = load i32, i32* %37, align 4
  %39 = icmp slt i32 %38, 60
  br i1 %39, label %40, label %63

40:                                               ; preds = %22
  %41 = load i32, i32* %6, align 4
  %42 = sext i32 %41 to i64
  %43 = getelementptr inbounds [100 x %struct.young], [100 x %struct.young]* %4, i64 0, i64 %42
  %44 = getelementptr inbounds %struct.young, %struct.young* %43, i32 0, i32 0
  %45 = getelementptr inbounds [10 x i8], [10 x i8]* %44, i64 0, i64 0
  %46 = load i32, i32* %12, align 4
  %47 = sext i32 %46 to i64
  %48 = getelementptr inbounds [100 x %struct.patient], [100 x %struct.patient]* %2, i64 0, i64 %47
  %49 = getelementptr inbounds %struct.patient, %struct.patient* %48, i32 0, i32 0
  %50 = getelementptr inbounds [10 x i8], [10 x i8]* %49, i64 0, i64 0
  %51 = call i8* @strcpy(i8* %45, i8* %50) #3
  %52 = load i32, i32* %12, align 4
  %53 = sext i32 %52 to i64
  %54 = getelementptr inbounds [100 x %struct.patient], [100 x %struct.patient]* %2, i64 0, i64 %53
  %55 = getelementptr inbounds %struct.patient, %struct.patient* %54, i32 0, i32 1
  %56 = load i32, i32* %55, align 4
  %57 = load i32, i32* %6, align 4
  %58 = sext i32 %57 to i64
  %59 = getelementptr inbounds [100 x %struct.young], [100 x %struct.young]* %4, i64 0, i64 %58
  %60 = getelementptr inbounds %struct.young, %struct.young* %59, i32 0, i32 1
  store i32 %56, i32* %60, align 4
  %61 = load i32, i32* %6, align 4
  %62 = add nsw i32 %61, 1
  store i32 %62, i32* %6, align 4
  br label %63

63:                                               ; preds = %40, %22
  %64 = load i32, i32* %12, align 4
  %65 = sext i32 %64 to i64
  %66 = getelementptr inbounds [100 x %struct.patient], [100 x %struct.patient]* %2, i64 0, i64 %65
  %67 = getelementptr inbounds %struct.patient, %struct.patient* %66, i32 0, i32 1
  %68 = load i32, i32* %67, align 4
  %69 = icmp sge i32 %68, 60
  br i1 %69, label %70, label %93

70:                                               ; preds = %63
  %71 = load i32, i32* %7, align 4
  %72 = sext i32 %71 to i64
  %73 = getelementptr inbounds [100 x %struct.old], [100 x %struct.old]* %3, i64 0, i64 %72
  %74 = getelementptr inbounds %struct.old, %struct.old* %73, i32 0, i32 0
  %75 = getelementptr inbounds [10 x i8], [10 x i8]* %74, i64 0, i64 0
  %76 = load i32, i32* %12, align 4
  %77 = sext i32 %76 to i64
  %78 = getelementptr inbounds [100 x %struct.patient], [100 x %struct.patient]* %2, i64 0, i64 %77
  %79 = getelementptr inbounds %struct.patient, %struct.patient* %78, i32 0, i32 0
  %80 = getelementptr inbounds [10 x i8], [10 x i8]* %79, i64 0, i64 0
  %81 = call i8* @strcpy(i8* %75, i8* %80) #3
  %82 = load i32, i32* %12, align 4
  %83 = sext i32 %82 to i64
  %84 = getelementptr inbounds [100 x %struct.patient], [100 x %struct.patient]* %2, i64 0, i64 %83
  %85 = getelementptr inbounds %struct.patient, %struct.patient* %84, i32 0, i32 1
  %86 = load i32, i32* %85, align 4
  %87 = load i32, i32* %7, align 4
  %88 = sext i32 %87 to i64
  %89 = getelementptr inbounds [100 x %struct.old], [100 x %struct.old]* %3, i64 0, i64 %88
  %90 = getelementptr inbounds %struct.old, %struct.old* %89, i32 0, i32 1
  store i32 %86, i32* %90, align 4
  %91 = load i32, i32* %7, align 4
  %92 = add nsw i32 %91, 1
  store i32 %92, i32* %7, align 4
  br label %93

93:                                               ; preds = %70, %63
  br label %94

94:                                               ; preds = %93
  %95 = load i32, i32* %12, align 4
  %96 = add nsw i32 %95, 1
  store i32 %96, i32* %12, align 4
  br label %18

97:                                               ; preds = %18
  %98 = load i32, i32* %7, align 4
  %99 = sub nsw i32 %98, 1
  store i32 %99, i32* %13, align 4
  br label %100

100:                                              ; preds = %175, %97
  %101 = load i32, i32* %13, align 4
  %102 = icmp sgt i32 %101, 0
  br i1 %102, label %103, label %178

103:                                              ; preds = %100
  store i32 0, i32* %14, align 4
  br label %104

104:                                              ; preds = %171, %103
  %105 = load i32, i32* %14, align 4
  %106 = load i32, i32* %13, align 4
  %107 = icmp slt i32 %105, %106
  br i1 %107, label %108, label %174

108:                                              ; preds = %104
  %109 = load i32, i32* %14, align 4
  %110 = sext i32 %109 to i64
  %111 = getelementptr inbounds [100 x %struct.old], [100 x %struct.old]* %3, i64 0, i64 %110
  %112 = getelementptr inbounds %struct.old, %struct.old* %111, i32 0, i32 1
  %113 = load i32, i32* %112, align 4
  %114 = load i32, i32* %14, align 4
  %115 = add nsw i32 %114, 1
  %116 = sext i32 %115 to i64
  %117 = getelementptr inbounds [100 x %struct.old], [100 x %struct.old]* %3, i64 0, i64 %116
  %118 = getelementptr inbounds %struct.old, %struct.old* %117, i32 0, i32 1
  %119 = load i32, i32* %118, align 4
  %120 = icmp slt i32 %113, %119
  br i1 %120, label %121, label %170

121:                                              ; preds = %108
  %122 = load i32, i32* %14, align 4
  %123 = add nsw i32 %122, 1
  %124 = sext i32 %123 to i64
  %125 = getelementptr inbounds [100 x %struct.old], [100 x %struct.old]* %3, i64 0, i64 %124
  %126 = getelementptr inbounds %struct.old, %struct.old* %125, i32 0, i32 1
  %127 = load i32, i32* %126, align 4
  store i32 %127, i32* %10, align 4
  %128 = load i32, i32* %14, align 4
  %129 = sext i32 %128 to i64
  %130 = getelementptr inbounds [100 x %struct.old], [100 x %struct.old]* %3, i64 0, i64 %129
  %131 = getelementptr inbounds %struct.old, %struct.old* %130, i32 0, i32 1
  %132 = load i32, i32* %131, align 4
  %133 = load i32, i32* %14, align 4
  %134 = add nsw i32 %133, 1
  %135 = sext i32 %134 to i64
  %136 = getelementptr inbounds [100 x %struct.old], [100 x %struct.old]* %3, i64 0, i64 %135
  %137 = getelementptr inbounds %struct.old, %struct.old* %136, i32 0, i32 1
  store i32 %132, i32* %137, align 4
  %138 = load i32, i32* %10, align 4
  %139 = load i32, i32* %14, align 4
  %140 = sext i32 %139 to i64
  %141 = getelementptr inbounds [100 x %struct.old], [100 x %struct.old]* %3, i64 0, i64 %140
  %142 = getelementptr inbounds %struct.old, %struct.old* %141, i32 0, i32 1
  store i32 %138, i32* %142, align 4
  %143 = getelementptr inbounds [10 x i8], [10 x i8]* %11, i64 0, i64 0
  %144 = load i32, i32* %14, align 4
  %145 = add nsw i32 %144, 1
  %146 = sext i32 %145 to i64
  %147 = getelementptr inbounds [100 x %struct.old], [100 x %struct.old]* %3, i64 0, i64 %146
  %148 = getelementptr inbounds %struct.old, %struct.old* %147, i32 0, i32 0
  %149 = getelementptr inbounds [10 x i8], [10 x i8]* %148, i64 0, i64 0
  %150 = call i8* @strcpy(i8* %143, i8* %149) #3
  %151 = load i32, i32* %14, align 4
  %152 = add nsw i32 %151, 1
  %153 = sext i32 %152 to i64
  %154 = getelementptr inbounds [100 x %struct.old], [100 x %struct.old]* %3, i64 0, i64 %153
  %155 = getelementptr inbounds %struct.old, %struct.old* %154, i32 0, i32 0
  %156 = getelementptr inbounds [10 x i8], [10 x i8]* %155, i64 0, i64 0
  %157 = load i32, i32* %14, align 4
  %158 = sext i32 %157 to i64
  %159 = getelementptr inbounds [100 x %struct.old], [100 x %struct.old]* %3, i64 0, i64 %158
  %160 = getelementptr inbounds %struct.old, %struct.old* %159, i32 0, i32 0
  %161 = getelementptr inbounds [10 x i8], [10 x i8]* %160, i64 0, i64 0
  %162 = call i8* @strcpy(i8* %156, i8* %161) #3
  %163 = load i32, i32* %14, align 4
  %164 = sext i32 %163 to i64
  %165 = getelementptr inbounds [100 x %struct.old], [100 x %struct.old]* %3, i64 0, i64 %164
  %166 = getelementptr inbounds %struct.old, %struct.old* %165, i32 0, i32 0
  %167 = getelementptr inbounds [10 x i8], [10 x i8]* %166, i64 0, i64 0
  %168 = getelementptr inbounds [10 x i8], [10 x i8]* %11, i64 0, i64 0
  %169 = call i8* @strcpy(i8* %167, i8* %168) #3
  br label %170

170:                                              ; preds = %121, %108
  br label %171

171:                                              ; preds = %170
  %172 = load i32, i32* %14, align 4
  %173 = add nsw i32 %172, 1
  store i32 %173, i32* %14, align 4
  br label %104

174:                                              ; preds = %104
  br label %175

175:                                              ; preds = %174
  %176 = load i32, i32* %13, align 4
  %177 = add nsw i32 %176, -1
  store i32 %177, i32* %13, align 4
  br label %100

178:                                              ; preds = %100
  store i32 0, i32* %15, align 4
  br label %179

179:                                              ; preds = %191, %178
  %180 = load i32, i32* %15, align 4
  %181 = load i32, i32* %7, align 4
  %182 = sub nsw i32 %181, 1
  %183 = icmp sle i32 %180, %182
  br i1 %183, label %184, label %194

184:                                              ; preds = %179
  %185 = load i32, i32* %15, align 4
  %186 = sext i32 %185 to i64
  %187 = getelementptr inbounds [100 x %struct.old], [100 x %struct.old]* %3, i64 0, i64 %186
  %188 = getelementptr inbounds %struct.old, %struct.old* %187, i32 0, i32 0
  %189 = getelementptr inbounds [10 x i8], [10 x i8]* %188, i64 0, i64 0
  %190 = call i32 (i8*, ...) @printf(i8* getelementptr inbounds ([4 x i8], [4 x i8]* @.str.2, i64 0, i64 0), i8* %189)
  br label %191

191:                                              ; preds = %184
  %192 = load i32, i32* %15, align 4
  %193 = add nsw i32 %192, 1
  store i32 %193, i32* %15, align 4
  br label %179

194:                                              ; preds = %179
  store i32 0, i32* %16, align 4
  br label %195

195:                                              ; preds = %207, %194
  %196 = load i32, i32* %16, align 4
  %197 = load i32, i32* %6, align 4
  %198 = sub nsw i32 %197, 1
  %199 = icmp sle i32 %196, %198
  br i1 %199, label %200, label %210

200:                                              ; preds = %195
  %201 = load i32, i32* %16, align 4
  %202 = sext i32 %201 to i64
  %203 = getelementptr inbounds [100 x %struct.young], [100 x %struct.young]* %4, i64 0, i64 %202
  %204 = getelementptr inbounds %struct.young, %struct.young* %203, i32 0, i32 0
  %205 = getelementptr inbounds [10 x i8], [10 x i8]* %204, i64 0, i64 0
  %206 = call i32 (i8*, ...) @printf(i8* getelementptr inbounds ([4 x i8], [4 x i8]* @.str.2, i64 0, i64 0), i8* %205)
  br label %207

207:                                              ; preds = %200
  %208 = load i32, i32* %16, align 4
  %209 = add nsw i32 %208, 1
  store i32 %209, i32* %16, align 4
  br label %195

210:                                              ; preds = %195
  ret i32 0
}

declare dso_local i32 @__isoc99_scanf(i8*, ...) #1

; Function Attrs: nounwind
declare dso_local i8* @strcpy(i8*, i8*) #2

declare dso_local i32 @printf(i8*, ...) #1


!llvm.module.flags = !{!0}
!llvm.ident = !{!1}

!0 = !{i32 1, !"wchar_size", i32 4}
!1 = !{!"clang version 10.0.0-4ubuntu1 "}
